target datalayout = "e-m:e-p270:32:32-p271:32:32-p272:64:64-i64:64-i128:128-f80:128-n8:16:32:64-S128"
target triple = "x86_64-pc-linux-gnu"

@.str = private unnamed_addr constant [26 x i8] c"Parameter '%s' is invalid\00", align 1
@.str.2 = private unnamed_addr constant [8 x i8] c"oldpath\00", align 1
@.str.3 = private unnamed_addr constant [8 x i8] c"newpath\00", align 1

; Function Attrs: nounwind uwtable
define hidden zeroext i1 @SDL_RenamePath_REAL(ptr noundef %0, ptr noundef %1) #0 {
  %3 = alloca i1, align 1
  %4 = alloca ptr, align 8
  %5 = alloca ptr, align 8
  store ptr %0, ptr %4, align 8
  store ptr %1, ptr %5, align 8
  %6 = load ptr, ptr %4, align 8
  %7 = icmp ne ptr %6, null
  br i1 %7, label %10, label %8

8:                                                ; preds = %2
  %9 = call zeroext i1 (ptr, ...) @SDL_SetError_REAL(ptr noundef @.str, ptr noundef @.str.2)
  store i1 %9, ptr %3, align 1
  br label %20

10:                                               ; preds = %2
  %11 = load ptr, ptr %5, align 8
  %12 = icmp ne ptr %11, null
  br i1 %12, label %15, label %13

13:                                               ; preds = %10
  %14 = call zeroext i1 (ptr, ...) @SDL_SetError_REAL(ptr noundef @.str, ptr noundef @.str.3)
  store i1 %14, ptr %3, align 1
  br label %20

15:                                               ; preds = %10
  br label %16

16:                                               ; preds = %15
  %17 = load ptr, ptr %4, align 8
  %18 = load ptr, ptr %5, align 8
  %19 = call zeroext i1 @SDL_SYS_RenamePath(ptr noundef %17, ptr noundef %18)
  store i1 %19, ptr %3, align 1
  br label %20

20:                                               ; preds = %16, %13, %8
  %21 = load i1, ptr %3, align 1
  ret i1 %21
}